target datalayout = "e-m:e-p270:32:32-p271:32:32-p272:64:64-i64:64-i128:128-f80:128-n8:16:32:64-S128"
target triple = "x86_64-pc-linux-gnu"

%struct.Pdr_Set_t_ = type { i64, i32, i32, i32, [0 x i32] }

; Function Attrs: nounwind uwtable
define internal void @Vec_IntSelectSort(ptr noundef %0, i32 noundef %1) #0 {
  %3 = alloca ptr, align 8
  %4 = alloca i32, align 4
  %5 = alloca i32, align 4
  %6 = alloca i32, align 4
  %7 = alloca i32, align 4
  %8 = alloca i32, align 4
  store ptr %0, ptr %3, align 8
  store i32 %1, ptr %4, align 4
  store i32 0, ptr %6, align 4
  br label %9

9:                                                ; preds = %60, %2
  %10 = load i32, ptr %6, align 4
  %11 = load i32, ptr %4, align 4
  %12 = sub nsw i32 %11, 1
  %13 = icmp slt i32 %10, %12
  br i1 %13, label %14, label %63

14:                                               ; preds = %9
  %15 = load i32, ptr %6, align 4
  store i32 %15, ptr %8, align 4
  %16 = load i32, ptr %6, align 4
  %17 = add nsw i32 %16, 1
  store i32 %17, ptr %7, align 4
  br label %18

18:                                               ; preds = %37, %14
  %19 = load i32, ptr %7, align 4
  %20 = load i32, ptr %4, align 4
  %21 = icmp slt i32 %19, %20
  br i1 %21, label %22, label %40

22:                                               ; preds = %18
  %23 = load ptr, ptr %3, align 8
  %24 = load i32, ptr %7, align 4
  %25 = sext i32 %24 to i64
  %26 = getelementptr inbounds i32, ptr %23, i64 %25
  %27 = load i32, ptr %26, align 4
  %28 = load ptr, ptr %3, align 8
  %29 = load i32, ptr %8, align 4
  %30 = sext i32 %29 to i64
  %31 = getelementptr inbounds i32, ptr %28, i64 %30
  %32 = load i32, ptr %31, align 4
  %33 = icmp slt i32 %27, %32
  br i1 %33, label %34, label %36

34:                                               ; preds = %22
  %35 = load i32, ptr %7, align 4
  store i32 %35, ptr %8, align 4
  br label %36

36:                                               ; preds = %34, %22
  br label %37

37:                                               ; preds = %36
  %38 = load i32, ptr %7, align 4
  %39 = add nsw i32 %38, 1
  store i32 %39, ptr %7, align 4
  br label %18, !llvm.loop !7

40:                                               ; preds = %18
  %41 = load ptr, ptr %3, align 8
  %42 = load i32, ptr %6, align 4
  %43 = sext i32 %42 to i64
  %44 = getelementptr inbounds i32, ptr %41, i64 %43
  %45 = load i32, ptr %44, align 4
  store i32 %45, ptr %5, align 4
  %46 = load ptr, ptr %3, align 8
  %47 = load i32, ptr %8, align 4
  %48 = sext i32 %47 to i64
  %49 = getelementptr inbounds i32, ptr %46, i64 %48
  %50 = load i32, ptr %49, align 4
  %51 = load ptr, ptr %3, align 8
  %52 = load i32, ptr %6, align 4
  %53 = sext i32 %52 to i64
  %54 = getelementptr inbounds i32, ptr %51, i64 %53
  store i32 %50, ptr %54, align 4
  %55 = load i32, ptr %5, align 4
  %56 = load ptr, ptr %3, align 8
  %57 = load i32, ptr %8, align 4
  %58 = sext i32 %57 to i64
  %59 = getelementptr inbounds i32, ptr %56, i64 %58
  store i32 %55, ptr %59, align 4
  br label %60

60:                                               ; preds = %40
  %61 = load i32, ptr %6, align 4
  %62 = add nsw i32 %61, 1
  store i32 %62, ptr %6, align 4
  br label %9, !llvm.loop !8

63:                                               ; preds = %9
  ret void
}

; Function Attrs: nounwind uwtable
define ptr @Pdr_SetCreateSubset(ptr noundef %0, ptr noundef %1, i32 noundef %2) #0 {
  %4 = alloca ptr, align 8
  %5 = alloca ptr, align 8
  %6 = alloca i32, align 4
  %7 = alloca ptr, align 8
  %8 = alloca i32, align 4
  %9 = alloca i32, align 4
  store ptr %0, ptr %4, align 8
  store ptr %1, ptr %5, align 8
  store i32 %2, ptr %6, align 4
  store i32 0, ptr %9, align 4
  %10 = load i32, ptr %6, align 4
  %11 = load ptr, ptr %4, align 8
  %12 = getelementptr inbounds %struct.Pdr_Set_t_, ptr %11, i32 0, i32 2
  %13 = load i32, ptr %12, align 4
  %14 = add nsw i32 %10, %13
  %15 = load ptr, ptr %4, align 8
  %16 = getelementptr inbounds %struct.Pdr_Set_t_, ptr %15, i32 0, i32 3
  %17 = load i32, ptr %16, align 8
  %18 = sub nsw i32 %14, %17
  %19 = sext i32 %18 to i64
  %20 = mul i64 %19, 4
  %21 = add i64 24, %20
  %22 = mul i64 1, %21
  %23 = call noalias ptr @malloc(i64 noundef %22) #10
  store ptr %23, ptr %7, align 8
  %24 = load i32, ptr %6, align 4
  %25 = load ptr, ptr %7, align 8
  %26 = getelementptr inbounds %struct.Pdr_Set_t_, ptr %25, i32 0, i32 3
  store i32 %24, ptr %26, align 8
  %27 = load i32, ptr %6, align 4
  %28 = load ptr, ptr %4, align 8
  %29 = getelementptr inbounds %struct.Pdr_Set_t_, ptr %28, i32 0, i32 2
  %30 = load i32, ptr %29, align 4
  %31 = add nsw i32 %27, %30
  %32 = load ptr, ptr %4, align 8
  %33 = getelementptr inbounds %struct.Pdr_Set_t_, ptr %32, i32 0, i32 3
  %34 = load i32, ptr %33, align 8
  %35 = sub nsw i32 %31, %34
  %36 = load ptr, ptr %7, align 8
  %37 = getelementptr inbounds %struct.Pdr_Set_t_, ptr %36, i32 0, i32 2
  store i32 %35, ptr %37, align 4
  %38 = load ptr, ptr %7, align 8
  %39 = getelementptr inbounds %struct.Pdr_Set_t_, ptr %38, i32 0, i32 1
  store i32 1, ptr %39, align 8
  %40 = load ptr, ptr %7, align 8
  %41 = getelementptr inbounds %struct.Pdr_Set_t_, ptr %40, i32 0, i32 0
  store i64 0, ptr %41, align 8
  store i32 0, ptr %8, align 4
  br label %42

42:                                               ; preds = %70, %3
  %43 = load i32, ptr %8, align 4
  %44 = load i32, ptr %6, align 4
  %45 = icmp slt i32 %43, %44
  br i1 %45, label %46, label %73

46:                                               ; preds = %42
  %47 = load ptr, ptr %5, align 8
  %48 = load i32, ptr %8, align 4
  %49 = sext i32 %48 to i64
  %50 = getelementptr inbounds i32, ptr %47, i64 %49
  %51 = load i32, ptr %50, align 4
  %52 = load ptr, ptr %7, align 8
  %53 = getelementptr inbounds %struct.Pdr_Set_t_, ptr %52, i32 0, i32 4
  %54 = load i32, ptr %9, align 4
  %55 = add nsw i32 %54, 1
  store i32 %55, ptr %9, align 4
  %56 = sext i32 %54 to i64
  %57 = getelementptr inbounds [0 x i32], ptr %53, i64 0, i64 %56
  store i32 %51, ptr %57, align 4
  %58 = load ptr, ptr %5, align 8
  %59 = load i32, ptr %8, align 4
  %60 = sext i32 %59 to i64
  %61 = getelementptr inbounds i32, ptr %58, i64 %60
  %62 = load i32, ptr %61, align 4
  %63 = srem i32 %62, 63
  %64 = zext i32 %63 to i64
  %65 = shl i64 1, %64
  %66 = load ptr, ptr %7, align 8
  %67 = getelementptr inbounds %struct.Pdr_Set_t_, ptr %66, i32 0, i32 0
  %68 = load i64, ptr %67, align 8
  %69 = or i64 %68, %65
  store i64 %69, ptr %67, align 8
  br label %70

70:                                               ; preds = %46
  %71 = load i32, ptr %8, align 4
  %72 = add nsw i32 %71, 1
  store i32 %72, ptr %8, align 4
  br label %42, !llvm.loop !10

73:                                               ; preds = %42
  %74 = load ptr, ptr %7, align 8
  %75 = getelementptr inbounds %struct.Pdr_Set_t_, ptr %74, i32 0, i32 4
  %76 = getelementptr inbounds [0 x i32], ptr %75, i64 0, i64 0
  %77 = load ptr, ptr %7, align 8
  %78 = getelementptr inbounds %struct.Pdr_Set_t_, ptr %77, i32 0, i32 3
  %79 = load i32, ptr %78, align 8
  call void @Vec_IntSelectSort(ptr noundef %76, i32 noundef %79)
  %80 = load ptr, ptr %4, align 8
  %81 = getelementptr inbounds %struct.Pdr_Set_t_, ptr %80, i32 0, i32 3
  %82 = load i32, ptr %81, align 8
  store i32 %82, ptr %8, align 4
  br label %83

83:                                               ; preds = %102, %73
  %84 = load i32, ptr %8, align 4
  %85 = load ptr, ptr %4, align 8
  %86 = getelementptr inbounds %struct.Pdr_Set_t_, ptr %85, i32 0, i32 2
  %87 = load i32, ptr %86, align 4
  %88 = icmp slt i32 %84, %87
  br i1 %88, label %89, label %105

89:                                               ; preds = %83
  %90 = load ptr, ptr %4, align 8
  %91 = getelementptr inbounds %struct.Pdr_Set_t_, ptr %90, i32 0, i32 4
  %92 = load i32, ptr %8, align 4
  %93 = sext i32 %92 to i64
  %94 = getelementptr inbounds [0 x i32], ptr %91, i64 0, i64 %93
  %95 = load i32, ptr %94, align 4
  %96 = load ptr, ptr %7, align 8
  %97 = getelementptr inbounds %struct.Pdr_Set_t_, ptr %96, i32 0, i32 4
  %98 = load i32, ptr %9, align 4
  %99 = add nsw i32 %98, 1
  store i32 %99, ptr %9, align 4
  %100 = sext i32 %98 to i64
  %101 = getelementptr inbounds [0 x i32], ptr %97, i64 0, i64 %100
  store i32 %95, ptr %101, align 4
  br label %102

102:                                              ; preds = %89
  %103 = load i32, ptr %8, align 4
  %104 = add nsw i32 %103, 1
  store i32 %104, ptr %8, align 4
  br label %83, !llvm.loop !11

105:                                              ; preds = %83
  %106 = load ptr, ptr %7, align 8
  ret ptr %106
}