; Function Attrs: nofree nounwind uwtable
define noalias noundef ptr @Pdr_SetCreateSubset(ptr noundef readonly captures(none) %0, ptr noundef readonly captures(none) %1, i32 noundef %2) local_unnamed_addr #2 {
  %4 = getelementptr inbounds nuw i8, ptr %0, i64 12
  %5 = load i32, ptr %4, align 4
  %6 = add nsw i32 %5, %2
  %7 = getelementptr inbounds nuw i8, ptr %0, i64 16
  %8 = load i32, ptr %7, align 8
  %9 = sub i32 %6, %8
  %10 = sext i32 %9 to i64
  %11 = shl nsw i64 %10, 2
  %12 = add nsw i64 %11, 24
  %13 = tail call noalias ptr @malloc(i64 noundef %12) #26
  %14 = getelementptr inbounds nuw i8, ptr %13, i64 16
  store i32 %2, ptr %14, align 8
  %15 = getelementptr inbounds nuw i8, ptr %13, i64 12
  store i32 %9, ptr %15, align 4
  %16 = getelementptr inbounds nuw i8, ptr %13, i64 8
  store i32 1, ptr %16, align 8
  store i64 0, ptr %13, align 8
  %17 = icmp sgt i32 %2, 0
  br i1 %17, label %.lr.ph, label %Vec_IntSelectSort.exit

.lr.ph:                                           ; preds = %3
  %18 = getelementptr inbounds nuw i8, ptr %13, i64 20
  %19 = zext nneg i32 %2 to i64
  %20 = shl nuw nsw i64 %19, 2
  tail call void @llvm.memcpy.p0.p0.i64(ptr nonnull align 4 %18, ptr align 4 %1, i64 %20, i1 false)
  br label %21

21:                                               ; preds = %.lr.ph, %21
  %indvars.iv = phi i64 [ 0, %.lr.ph ], [ %indvars.iv.next, %21 ]
  %22 = phi i64 [ 0, %.lr.ph ], [ %28, %21 ]
  %23 = getelementptr inbounds nuw i32, ptr %1, i64 %indvars.iv
  %24 = load i32, ptr %23, align 4
  %indvars.iv.next = add nuw nsw i64 %indvars.iv, 1
  %25 = srem i32 %24, 63
  %26 = zext nneg i32 %25 to i64
  %27 = shl nuw i64 1, %26
  %28 = or i64 %27, %22
  %exitcond.not = icmp eq i64 %indvars.iv.next, %19
  br i1 %exitcond.not, label %29, label %21, !llvm.loop !10

29:                                               ; preds = %21
  store i64 %28, ptr %13, align 8
  %30 = zext nneg i32 %2 to i64
  %31 = shl nuw nsw i64 %30, 2
  %32 = add nuw nsw i64 %31, 20
  %33 = getelementptr inbounds nuw i8, ptr %13, i64 20
  %.not = icmp eq i32 %2, 1
  br i1 %.not, label %Vec_IntSelectSort.exit, label %.lr.ph27.preheader.i

.lr.ph27.preheader.i:                             ; preds = %29
  %34 = add nsw i32 %2, -1
  %wide.trip.count35.i = zext nneg i32 %34 to i64
  %wide.trip.count.i = zext nneg i32 %2 to i64
  br label %.lr.ph.preheader.i

.lr.ph.preheader.i:                               ; preds = %._crit_edge.i, %.lr.ph27.preheader.i
  %indvars.iv32.i = phi i64 [ 0, %.lr.ph27.preheader.i ], [ %indvars.iv.next33.i, %._crit_edge.i ]
  %indvars.iv.i = phi i64 [ 1, %.lr.ph27.preheader.i ], [ %indvars.iv.next.i, %._crit_edge.i ]
  %35 = trunc nuw nsw i64 %indvars.iv32.i to i32
  br label %.lr.ph.i

.lr.ph.i:                                         ; preds = %.lr.ph.i, %.lr.ph.preheader.i
  %indvars.iv29.i = phi i64 [ %indvars.iv.i, %.lr.ph.preheader.i ], [ %indvars.iv.next30.i, %.lr.ph.i ]
  %.024.i = phi i32 [ %35, %.lr.ph.preheader.i ], [ %spec.select.i, %.lr.ph.i ]
  %36 = getelementptr inbounds nuw i32, ptr %33, i64 %indvars.iv29.i
  %37 = load i32, ptr %36, align 4
  %38 = sext i32 %.024.i to i64
  %39 = getelementptr inbounds i32, ptr %33, i64 %38
  %40 = load i32, ptr %39, align 4
  %41 = icmp slt i32 %37, %40
  %42 = trunc nuw nsw i64 %indvars.iv29.i to i32
  %spec.select.i = select i1 %41, i32 %42, i32 %.024.i
  %indvars.iv.next30.i = add nuw nsw i64 %indvars.iv29.i, 1
  %exitcond.not.i = icmp eq i64 %indvars.iv.next30.i, %wide.trip.count.i
  br i1 %exitcond.not.i, label %._crit_edge.i, label %.lr.ph.i, !llvm.loop !6

._crit_edge.i:                                    ; preds = %.lr.ph.i
  %indvars.iv.next33.i = add nuw nsw i64 %indvars.iv32.i, 1
  %43 = getelementptr inbounds nuw i32, ptr %33, i64 %indvars.iv32.i
  %44 = load i32, ptr %43, align 4
  %45 = sext i32 %spec.select.i to i64
  %46 = getelementptr inbounds i32, ptr %33, i64 %45
  %47 = load i32, ptr %46, align 4
  store i32 %47, ptr %43, align 4
  store i32 %44, ptr %46, align 4
  %indvars.iv.next.i = add nuw nsw i64 %indvars.iv.i, 1
  %exitcond36.not.i = icmp eq i64 %indvars.iv.next33.i, %wide.trip.count35.i
  br i1 %exitcond36.not.i, label %Vec_IntSelectSort.exit, label %.lr.ph.preheader.i, !llvm.loop !7

Vec_IntSelectSort.exit:                           ; preds = %._crit_edge.i, %3, %29
  %.0.lcssa52 = phi i64 [ %32, %29 ], [ 20, %3 ], [ %32, %._crit_edge.i ]
  %48 = icmp slt i32 %8, %5
  br i1 %48, label %.lr.ph37, label %._crit_edge38

.lr.ph37:                                         ; preds = %Vec_IntSelectSort.exit
  %scevgep = getelementptr i8, ptr %13, i64 %.0.lcssa52
  %49 = sext i32 %8 to i64
  %50 = shl nsw i64 %49, 2
  %51 = getelementptr i8, ptr %0, i64 %50
  %scevgep43 = getelementptr i8, ptr %51, i64 20
  %52 = xor i32 %8, -1
  %53 = add i32 %5, %52
  %54 = zext i32 %53 to i64
  %55 = shl nuw nsw i64 %54, 2
  %56 = add nuw nsw i64 %55, 4
  tail call void @llvm.memcpy.p0.p0.i64(ptr noundef nonnull align 4 dereferenceable(1) %scevgep, ptr noundef nonnull align 4 dereferenceable(1) %scevgep43, i64 %56, i1 false)
  br label %._crit_edge38

._crit_edge38:                                    ; preds = %.lr.ph37, %Vec_IntSelectSort.exit
  ret ptr %13
}